target datalayout = "e-m:e-p270:32:32-p271:32:32-p272:64:64-i64:64-i128:128-f80:128-n8:16:32:64-S128"
target triple = "x86_64-unknown-linux-gnu"

%"class.std::__cxx11::basic_string" = type { %"struct.std::__cxx11::basic_string<char>::_Alloc_hider", i64, %union.anon }
%"struct.std::__cxx11::basic_string<char>::_Alloc_hider" = type { ptr }
%union.anon = type { i64, [8 x i8] }
%"struct.flatbuffers::(anonymous namespace)::ImportDefinition" = type { %"class.std::__cxx11::basic_string", %"class.std::__cxx11::basic_string", %"class.std::__cxx11::basic_string", %"class.std::__cxx11::basic_string", %"class.std::__cxx11::basic_string", %"class.std::__cxx11::basic_string", ptr, ptr }

; Function Attrs: mustprogress nounwind uwtable
define internal void @_ZN11flatbuffers12_GLOBAL__N_116ImportDefinitionD2Ev(ptr noundef nonnull align 8 dereferenceable(208) %this) unnamed_addr #7 align 2 {
entry:
  %this.addr = alloca ptr, align 8
  store ptr %this, ptr %this.addr, align 8
  %this1 = load ptr, ptr %this.addr, align 8
  %object_name = getelementptr inbounds %"struct.flatbuffers::(anonymous namespace)::ImportDefinition", ptr %this1, i32 0, i32 5
  call void @_ZNSt7__cxx1112basic_stringIcSt11char_traitsIcESaIcEED1Ev(ptr noundef nonnull align 8 dereferenceable(32) %object_name) #3
  %rel_file_path = getelementptr inbounds %"struct.flatbuffers::(anonymous namespace)::ImportDefinition", ptr %this1, i32 0, i32 4
  call void @_ZNSt7__cxx1112basic_stringIcSt11char_traitsIcESaIcEED1Ev(ptr noundef nonnull align 8 dereferenceable(32) %rel_file_path) #3
  %bare_file_path = getelementptr inbounds %"struct.flatbuffers::(anonymous namespace)::ImportDefinition", ptr %this1, i32 0, i32 3
  call void @_ZNSt7__cxx1112basic_stringIcSt11char_traitsIcESaIcEED1Ev(ptr noundef nonnull align 8 dereferenceable(32) %bare_file_path) #3
  %export_statement = getelementptr inbounds %"struct.flatbuffers::(anonymous namespace)::ImportDefinition", ptr %this1, i32 0, i32 2
  call void @_ZNSt7__cxx1112basic_stringIcSt11char_traitsIcESaIcEED1Ev(ptr noundef nonnull align 8 dereferenceable(32) %export_statement) #3
  %import_statement = getelementptr inbounds %"struct.flatbuffers::(anonymous namespace)::ImportDefinition", ptr %this1, i32 0, i32 1
  call void @_ZNSt7__cxx1112basic_stringIcSt11char_traitsIcESaIcEED1Ev(ptr noundef nonnull align 8 dereferenceable(32) %import_statement) #3
  %name = getelementptr inbounds %"struct.flatbuffers::(anonymous namespace)::ImportDefinition", ptr %this1, i32 0, i32 0
  call void @_ZNSt7__cxx1112basic_stringIcSt11char_traitsIcESaIcEED1Ev(ptr noundef nonnull align 8 dereferenceable(32) %name) #3
  ret void
}